; Function Attrs: mustprogress nofree norecurse nosync nounwind willreturn memory(argmem: readwrite) uwtable
define void @_ZN3gmx25CompositeSimulatorElementC2ESt6vectorINS_6compat8not_nullIPNS_17ISimulatorElementEEESaIS6_EES1_ISt10unique_ptrIS4_St14default_deleteIS4_EESaISC_EEi(ptr nocapture noundef nonnull writeonly align 8 dereferenceable(64) %0, ptr nocapture noundef %1, ptr nocapture noundef %2, i32 noundef %3) unnamed_addr #2 align 2 {
  store ptr getelementptr inbounds inrange(-16, 40) ({ [7 x ptr] }, ptr @_ZTVN3gmx25CompositeSimulatorElementE, i64 0, i32 0, i64 2), ptr %0, align 8
  %5 = getelementptr inbounds i8, ptr %0, i64 8
  %6 = load ptr, ptr %1, align 8
  store ptr %6, ptr %5, align 8
  %7 = getelementptr inbounds i8, ptr %0, i64 16
  %8 = getelementptr inbounds i8, ptr %1, i64 8
  %9 = load ptr, ptr %8, align 8
  store ptr %9, ptr %7, align 8
  %10 = getelementptr inbounds i8, ptr %0, i64 24
  %11 = getelementptr inbounds i8, ptr %1, i64 16
  %12 = load ptr, ptr %11, align 8
  store ptr %12, ptr %10, align 8
  tail call void @llvm.memset.p0.i64(ptr noundef nonnull align 8 dereferenceable(24) %1, i8 0, i64 24, i1 false)
  %13 = getelementptr inbounds i8, ptr %0, i64 32
  %14 = load ptr, ptr %2, align 8
  store ptr %14, ptr %13, align 8
  %15 = getelementptr inbounds i8, ptr %0, i64 40
  %16 = getelementptr inbounds i8, ptr %2, i64 8
  %17 = load ptr, ptr %16, align 8
  store ptr %17, ptr %15, align 8
  %18 = getelementptr inbounds i8, ptr %0, i64 48
  %19 = getelementptr inbounds i8, ptr %2, i64 16
  %20 = load ptr, ptr %19, align 8
  store ptr %20, ptr %18, align 8
  tail call void @llvm.memset.p0.i64(ptr noundef nonnull align 8 dereferenceable(24) %2, i8 0, i64 24, i1 false)
  %21 = getelementptr inbounds i8, ptr %0, i64 56
  store i32 %3, ptr %21, align 8
  ret void
}